target datalayout = "e-m:e-p270:32:32-p271:32:32-p272:64:64-i64:64-i128:128-f80:128-n8:16:32:64-S128"
target triple = "x86_64-pc-linux-gnu"

%struct.ggml_backend_buffer_i = type { ptr, ptr, ptr, ptr, ptr, ptr, ptr, ptr, ptr }
%struct.ggml_backend_buffer = type { %struct.ggml_backend_buffer_i, ptr, ptr, i64, i32 }

; Function Attrs: mustprogress nounwind uwtable
define internal noundef ptr @_ZL32ggml_backend_cpu_buffer_get_baseP19ggml_backend_buffer(ptr noundef %0) #4 {
  %2 = alloca ptr, align 8
  %3 = alloca i64, align 8
  store ptr %0, ptr %2, align 8, !tbaa !24
  call void @llvm.lifetime.start.p0(i64 8, ptr %3) #15
  %4 = load ptr, ptr %2, align 8, !tbaa !24
  %5 = getelementptr inbounds nuw %struct.ggml_backend_buffer, ptr %4, i32 0, i32 2
  %6 = load ptr, ptr %5, align 8, !tbaa !21
  %7 = ptrtoint ptr %6 to i64
  store i64 %7, ptr %3, align 8, !tbaa !12
  %8 = load i64, ptr %3, align 8, !tbaa !12
  %9 = urem i64 %8, 32
  %10 = icmp ne i64 %9, 0
  br i1 %10, label %11, label %16

11:                                               ; preds = %1
  %12 = load i64, ptr %3, align 8, !tbaa !12
  %13 = add i64 %12, 32
  %14 = sub i64 %13, 1
  %15 = and i64 %14, -32
  store i64 %15, ptr %3, align 8, !tbaa !12
  br label %16

16:                                               ; preds = %11, %1
  %17 = load i64, ptr %3, align 8, !tbaa !12
  %18 = inttoptr i64 %17 to ptr
  call void @llvm.lifetime.end.p0(i64 8, ptr %3) #15
  ret ptr %18
}